target datalayout = "e-m:e-p270:32:32-p271:32:32-p272:64:64-i64:64-i128:128-f80:128-n8:16:32:64-S128"
target triple = "x86_64-pc-linux-gnu"

%struct.pxr_nc_1_0_Yxy = type { float, float, float }
%struct.NcYuvPrime = type { float, float, float }

; Function Attrs: nounwind uwtable
define { <2 x float>, float } @_NcYuv2Yxy(<2 x float> %0, float %1) #6 {
  %3 = alloca %struct.pxr_nc_1_0_Yxy, align 4
  %4 = alloca %struct.NcYuvPrime, align 4
  %5 = alloca { <2 x float>, float }, align 4
  %6 = alloca float, align 4
  %7 = alloca { <2 x float>, float }, align 8
  %8 = getelementptr inbounds nuw { <2 x float>, float }, ptr %5, i32 0, i32 0
  store <2 x float> %0, ptr %8, align 4
  %9 = getelementptr inbounds nuw { <2 x float>, float }, ptr %5, i32 0, i32 1
  store float %1, ptr %9, align 4
  call void @llvm.memcpy.p0.p0.i64(ptr align 4 %4, ptr align 4 %5, i64 12, i1 false)
  %10 = getelementptr inbounds nuw %struct.NcYuvPrime, ptr %4, i32 0, i32 1
  %11 = load float, ptr %10, align 4
  %12 = getelementptr inbounds nuw %struct.NcYuvPrime, ptr %4, i32 0, i32 2
  %13 = load float, ptr %12, align 4
  %14 = fmul float 1.600000e+01, %13
  %15 = fneg float %14
  %16 = call float @llvm.fmuladd.f32(float 6.000000e+00, float %11, float %15)
  %17 = fadd float %16, 1.200000e+01
  store float %17, ptr %6, align 4
  %18 = getelementptr inbounds nuw %struct.pxr_nc_1_0_Yxy, ptr %3, i32 0, i32 0
  %19 = getelementptr inbounds nuw %struct.NcYuvPrime, ptr %4, i32 0, i32 0
  %20 = load float, ptr %19, align 4
  store float %20, ptr %18, align 4
  %21 = getelementptr inbounds nuw %struct.pxr_nc_1_0_Yxy, ptr %3, i32 0, i32 1
  %22 = getelementptr inbounds nuw %struct.NcYuvPrime, ptr %4, i32 0, i32 1
  %23 = load float, ptr %22, align 4
  %24 = fmul float 9.000000e+00, %23
  %25 = load float, ptr %6, align 4
  %26 = fdiv float %24, %25
  store float %26, ptr %21, align 4
  %27 = getelementptr inbounds nuw %struct.pxr_nc_1_0_Yxy, ptr %3, i32 0, i32 2
  %28 = getelementptr inbounds nuw %struct.NcYuvPrime, ptr %4, i32 0, i32 2
  %29 = load float, ptr %28, align 4
  %30 = fmul float 4.000000e+00, %29
  %31 = load float, ptr %6, align 4
  %32 = fdiv float %30, %31
  store float %32, ptr %27, align 4
  call void @llvm.memcpy.p0.p0.i64(ptr align 8 %7, ptr align 4 %3, i64 12, i1 false)
  %33 = load { <2 x float>, float }, ptr %7, align 8
  ret { <2 x float>, float } %33
}

; Function Attrs: nounwind uwtable
define { <2 x float>, float } @pxr_nc_1_0_KelvinToYxy(float noundef %0, float noundef %1) #6 {
  %3 = alloca %struct.pxr_nc_1_0_Yxy, align 4
  %4 = alloca float, align 4
  %5 = alloca float, align 4
  %6 = alloca float, align 4
  %7 = alloca float, align 4
  %8 = alloca %struct.NcYuvPrime, align 4
  %9 = alloca { <2 x float>, float }, align 4
  %10 = alloca { <2 x float>, float }, align 8
  %11 = alloca { <2 x float>, float }, align 8
  store float %0, ptr %4, align 4
  store float %1, ptr %5, align 4
  %12 = load float, ptr %4, align 4
  %13 = fcmp olt float %12, 1.000000e+03
  br i1 %13, label %17, label %14

14:                                               ; preds = %2
  %15 = load float, ptr %4, align 4
  %16 = fcmp ogt float %15, 1.500000e+04
  br i1 %16, label %17, label %21

17:                                               ; preds = %14, %2
  %18 = getelementptr inbounds nuw %struct.pxr_nc_1_0_Yxy, ptr %3, i32 0, i32 0
  store float 0.000000e+00, ptr %18, align 4
  %19 = getelementptr inbounds nuw %struct.pxr_nc_1_0_Yxy, ptr %3, i32 0, i32 1
  store float 0.000000e+00, ptr %19, align 4
  %20 = getelementptr inbounds nuw %struct.pxr_nc_1_0_Yxy, ptr %3, i32 0, i32 2
  store float 0.000000e+00, ptr %20, align 4
  br label %75

21:                                               ; preds = %14
  %22 = load float, ptr %4, align 4
  %23 = fpext float %22 to double
  %24 = call double @llvm.fmuladd.f64(double 0x3F243359B8A6AC87, double %23, double 0x3FEB8615ACA0C396)
  %25 = load float, ptr %4, align 4
  %26 = fpext float %25 to double
  %27 = fmul double 0x3E8144140CB5D29B, %26
  %28 = load float, ptr %4, align 4
  %29 = fpext float %28 to double
  %30 = call double @llvm.fmuladd.f64(double %27, double %29, double %24)
  %31 = load float, ptr %4, align 4
  %32 = fpext float %31 to double
  %33 = call double @llvm.fmuladd.f64(double 0x3F4B9ABBADED9AED, double %32, double 1.000000e+00)
  %34 = load float, ptr %4, align 4
  %35 = fpext float %34 to double
  %36 = fmul double 0x3EA7C2EBAE86C0AB, %35
  %37 = load float, ptr %4, align 4
  %38 = fpext float %37 to double
  %39 = call double @llvm.fmuladd.f64(double %36, double %38, double %33)
  %40 = fdiv double %30, %39
  %41 = fptrunc double %40 to float
  store float %41, ptr %6, align 4
  %42 = load float, ptr %4, align 4
  %43 = fpext float %42 to double
  %44 = call double @llvm.fmuladd.f64(double 0x3F062ACF3223988F, double %43, double 0x3FD45042BEFD9279)
  %45 = load float, ptr %4, align 4
  %46 = fpext float %45 to double
  %47 = fmul double 0x3E66930E6D617863, %46
  %48 = load float, ptr %4, align 4
  %49 = fpext float %48 to double
  %50 = call double @llvm.fmuladd.f64(double %47, double %49, double %44)
  %51 = load float, ptr %4, align 4
  %52 = fpext float %51 to double
  %53 = call double @llvm.fmuladd.f64(double 0xBEFE61B299312005, double %52, double 1.000000e+00)
  %54 = load float, ptr %4, align 4
  %55 = fpext float %54 to double
  %56 = fmul double 0x3E85AB9676105248, %55
  %57 = load float, ptr %4, align 4
  %58 = fpext float %57 to double
  %59 = call double @llvm.fmuladd.f64(double %56, double %58, double %53)
  %60 = fdiv double %50, %59
  %61 = fptrunc double %60 to float
  store float %61, ptr %7, align 4
  %62 = getelementptr inbounds nuw %struct.NcYuvPrime, ptr %8, i32 0, i32 0
  %63 = load float, ptr %5, align 4
  store float %63, ptr %62, align 4
  %64 = getelementptr inbounds nuw %struct.NcYuvPrime, ptr %8, i32 0, i32 1
  %65 = load float, ptr %6, align 4
  store float %65, ptr %64, align 4
  %66 = getelementptr inbounds nuw %struct.NcYuvPrime, ptr %8, i32 0, i32 2
  %67 = load float, ptr %7, align 4
  %68 = fmul float 3.000000e+00, %67
  %69 = fdiv float %68, 2.000000e+00
  store float %69, ptr %66, align 4
  call void @llvm.memcpy.p0.p0.i64(ptr align 4 %9, ptr align 4 %8, i64 12, i1 false)
  %70 = getelementptr inbounds nuw { <2 x float>, float }, ptr %9, i32 0, i32 0
  %71 = load <2 x float>, ptr %70, align 4
  %72 = getelementptr inbounds nuw { <2 x float>, float }, ptr %9, i32 0, i32 1
  %73 = load float, ptr %72, align 4
  %74 = call { <2 x float>, float } @_NcYuv2Yxy(<2 x float> %71, float %73)
  store { <2 x float>, float } %74, ptr %10, align 8
  call void @llvm.memcpy.p0.p0.i64(ptr align 4 %3, ptr align 8 %10, i64 12, i1 false)
  br label %75

75:                                               ; preds = %21, %17
  call void @llvm.memcpy.p0.p0.i64(ptr align 8 %11, ptr align 4 %3, i64 12, i1 false)
  %76 = load { <2 x float>, float }, ptr %11, align 8
  ret { <2 x float>, float } %76
}