; Function Attrs: mustprogress nofree norecurse nosync nounwind willreturn memory(none) uwtable
define { <2 x float>, float } @pxr_nc_1_0_KelvinToYxy(float noundef %0, float noundef %1) local_unnamed_addr #13 {
  %3 = fcmp olt float %0, 1.000000e+03
  %4 = fcmp ogt float %0, 1.500000e+04
  %or.cond = or i1 %3, %4
  br i1 %or.cond, label %32, label %5

5:                                                ; preds = %2
  %6 = fpext float %0 to double
  %7 = tail call double @llvm.fmuladd.f64(double %6, double 0x3F243359B8A6AC87, double 0x3FEB8615ACA0C396)
  %8 = fmul double %6, 0x3E8144140CB5D29B
  %9 = tail call double @llvm.fmuladd.f64(double %8, double %6, double %7)
  %10 = tail call double @llvm.fmuladd.f64(double %6, double 0x3F4B9ABBADED9AED, double 1.000000e+00)
  %11 = fmul double %6, 0x3EA7C2EBAE86C0AB
  %12 = tail call double @llvm.fmuladd.f64(double %11, double %6, double %10)
  %13 = fdiv double %9, %12
  %14 = fptrunc double %13 to float
  %15 = tail call double @llvm.fmuladd.f64(double %6, double 0x3F062ACF3223988F, double 0x3FD45042BEFD9279)
  %16 = fmul double %6, 0x3E66930E6D617863
  %17 = tail call double @llvm.fmuladd.f64(double %16, double %6, double %15)
  %18 = tail call double @llvm.fmuladd.f64(double %6, double 0xBEFE61B299312005, double 1.000000e+00)
  %19 = fmul double %6, 0x3E85AB9676105248
  %20 = tail call double @llvm.fmuladd.f64(double %19, double %6, double %18)
  %21 = fdiv double %17, %20
  %22 = fptrunc double %21 to float
  %.sroa.06.0.vec.insert = insertelement <2 x float> poison, float %1, i64 0
  %23 = fmul float %22, 3.000000e+00
  %24 = fmul float %23, 5.000000e-01
  %25 = fmul float %24, -1.600000e+01
  %26 = tail call float @llvm.fmuladd.f32(float %14, float 6.000000e+00, float %25)
  %27 = fadd float %26, 1.200000e+01
  %28 = fmul float %14, 9.000000e+00
  %29 = fdiv float %28, %27
  %.sroa.08.4.vec.insert.i = insertelement <2 x float> %.sroa.06.0.vec.insert, float %29, i64 1
  %30 = fmul float %24, 4.000000e+00
  %31 = fdiv float %30, %27
  br label %32

32:                                               ; preds = %2, %5
  %.sroa.024.0 = phi <2 x float> [ %.sroa.08.4.vec.insert.i, %5 ], [ zeroinitializer, %2 ]
  %.sroa.4.0 = phi float [ %31, %5 ], [ 0.000000e+00, %2 ]
  %.fca.0.insert = insertvalue { <2 x float>, float } poison, <2 x float> %.sroa.024.0, 0
  %.fca.1.insert = insertvalue { <2 x float>, float } %.fca.0.insert, float %.sroa.4.0, 1
  ret { <2 x float>, float } %.fca.1.insert
}